target datalayout = "e-m:e-p270:32:32-p271:32:32-p272:64:64-i64:64-i128:128-f80:128-n8:16:32:64-S128"
target triple = "x86_64-pc-linux-gnu"

%struct._zval_struct = type { %union._zend_value, %union.anon, %union.anon.2 }
%union._zend_value = type { i64 }
%union.anon = type { i32 }
%union.anon.2 = type { i32 }
%struct._zend_refcounted_h = type { i32, %union.anon.3 }
%union.anon.3 = type { i32 }
%struct._zend_string = type { %struct._zend_refcounted_h, i64, i64, [1 x i8] }

@zend_empty_string = external global ptr, align 8
@zend_one_char_string = external global [256 x ptr], align 16

; Function Attrs: nounwind uwtable
define void @php_register_variable_safe(ptr noundef %0, ptr noundef %1, i64 noundef %2, ptr noundef %3) #0 {
  %5 = alloca ptr, align 8
  %6 = alloca i32, align 4
  %7 = alloca i64, align 8
  %8 = alloca i8, align 1
  %9 = alloca ptr, align 8
  %10 = alloca ptr, align 8
  %11 = alloca i64, align 8
  %12 = alloca i8, align 1
  %13 = alloca ptr, align 8
  %14 = alloca i32, align 4
  %15 = alloca ptr, align 8
  %16 = alloca ptr, align 8
  %17 = alloca i64, align 8
  %18 = alloca ptr, align 8
  %19 = alloca ptr, align 8
  %20 = alloca i64, align 8
  %21 = alloca ptr, align 8
  %22 = alloca %struct._zval_struct, align 8
  %23 = alloca ptr, align 8
  %24 = alloca ptr, align 8
  store ptr %0, ptr %18, align 8
  store ptr %1, ptr %19, align 8
  store i64 %2, ptr %20, align 8
  store ptr %3, ptr %21, align 8
  br label %25

25:                                               ; preds = %4
  br label %26

26:                                               ; preds = %25
  store ptr %22, ptr %23, align 8
  %27 = load ptr, ptr %19, align 8
  %28 = load i64, ptr %20, align 8
  store ptr %27, ptr %16, align 8
  store i64 %28, ptr %17, align 8
  %29 = load i64, ptr %17, align 8
  %30 = icmp ugt i64 %29, 1
  br i1 %30, label %31, label %478

31:                                               ; preds = %26
  %32 = load ptr, ptr %16, align 8
  %33 = load i64, ptr %17, align 8
  store ptr %32, ptr %10, align 8
  store i64 %33, ptr %11, align 8
  store i8 0, ptr %12, align 1
  %34 = load i64, ptr %11, align 8
  %35 = load i8, ptr %12, align 1
  %36 = trunc i8 %35 to i1
  store i64 %34, ptr %7, align 8
  %37 = zext i1 %36 to i8
  store i8 %37, ptr %8, align 1
  %38 = load i8, ptr %8, align 1
  %39 = trunc i8 %38 to i1
  br i1 %39, label %40, label %48

40:                                               ; preds = %31
  %41 = load i64, ptr %7, align 8
  %42 = add i64 24, %41
  %43 = add i64 %42, 1
  %44 = add i64 %43, 8
  %45 = sub i64 %44, 1
  %46 = and i64 %45, -8
  %47 = call noalias ptr @__zend_malloc(i64 noundef %46) #12
  br label %452

48:                                               ; preds = %31
  %49 = load i64, ptr %7, align 8
  %50 = add i64 24, %49
  %51 = add i64 %50, 1
  %52 = add i64 %51, 8
  %53 = sub i64 %52, 1
  %54 = and i64 %53, -8
  %55 = call i1 @llvm.is.constant.i64(i64 %54)
  br i1 %55, label %56, label %442

56:                                               ; preds = %48
  %57 = load i64, ptr %7, align 8
  %58 = add i64 24, %57
  %59 = add i64 %58, 1
  %60 = add i64 %59, 8
  %61 = sub i64 %60, 1
  %62 = and i64 %61, -8
  %63 = icmp ule i64 %62, 8
  br i1 %63, label %64, label %66

64:                                               ; preds = %56
  %65 = call noalias ptr @_emalloc_8() #13
  br label %440

66:                                               ; preds = %56
  %67 = load i64, ptr %7, align 8
  %68 = add i64 24, %67
  %69 = add i64 %68, 1
  %70 = add i64 %69, 8
  %71 = sub i64 %70, 1
  %72 = and i64 %71, -8
  %73 = icmp ule i64 %72, 16
  br i1 %73, label %74, label %76

74:                                               ; preds = %66
  %75 = call noalias ptr @_emalloc_16() #13
  br label %438

76:                                               ; preds = %66
  %77 = load i64, ptr %7, align 8
  %78 = add i64 24, %77
  %79 = add i64 %78, 1
  %80 = add i64 %79, 8
  %81 = sub i64 %80, 1
  %82 = and i64 %81, -8
  %83 = icmp ule i64 %82, 24
  br i1 %83, label %84, label %86

84:                                               ; preds = %76
  %85 = call noalias ptr @_emalloc_24() #13
  br label %436

86:                                               ; preds = %76
  %87 = load i64, ptr %7, align 8
  %88 = add i64 24, %87
  %89 = add i64 %88, 1
  %90 = add i64 %89, 8
  %91 = sub i64 %90, 1
  %92 = and i64 %91, -8
  %93 = icmp ule i64 %92, 32
  br i1 %93, label %94, label %96

94:                                               ; preds = %86
  %95 = call noalias ptr @_emalloc_32() #13
  br label %434

96:                                               ; preds = %86
  %97 = load i64, ptr %7, align 8
  %98 = add i64 24, %97
  %99 = add i64 %98, 1
  %100 = add i64 %99, 8
  %101 = sub i64 %100, 1
  %102 = and i64 %101, -8
  %103 = icmp ule i64 %102, 40
  br i1 %103, label %104, label %106

104:                                              ; preds = %96
  %105 = call noalias ptr @_emalloc_40() #13
  br label %432

106:                                              ; preds = %96
  %107 = load i64, ptr %7, align 8
  %108 = add i64 24, %107
  %109 = add i64 %108, 1
  %110 = add i64 %109, 8
  %111 = sub i64 %110, 1
  %112 = and i64 %111, -8
  %113 = icmp ule i64 %112, 48
  br i1 %113, label %114, label %116

114:                                              ; preds = %106
  %115 = call noalias ptr @_emalloc_48() #13
  br label %430

116:                                              ; preds = %106
  %117 = load i64, ptr %7, align 8
  %118 = add i64 24, %117
  %119 = add i64 %118, 1
  %120 = add i64 %119, 8
  %121 = sub i64 %120, 1
  %122 = and i64 %121, -8
  %123 = icmp ule i64 %122, 56
  br i1 %123, label %124, label %126

124:                                              ; preds = %116
  %125 = call noalias ptr @_emalloc_56() #13
  br label %428

126:                                              ; preds = %116
  %127 = load i64, ptr %7, align 8
  %128 = add i64 24, %127
  %129 = add i64 %128, 1
  %130 = add i64 %129, 8
  %131 = sub i64 %130, 1
  %132 = and i64 %131, -8
  %133 = icmp ule i64 %132, 64
  br i1 %133, label %134, label %136

134:                                              ; preds = %126
  %135 = call noalias ptr @_emalloc_64() #13
  br label %426

136:                                              ; preds = %126
  %137 = load i64, ptr %7, align 8
  %138 = add i64 24, %137
  %139 = add i64 %138, 1
  %140 = add i64 %139, 8
  %141 = sub i64 %140, 1
  %142 = and i64 %141, -8
  %143 = icmp ule i64 %142, 80
  br i1 %143, label %144, label %146

144:                                              ; preds = %136
  %145 = call noalias ptr @_emalloc_80() #13
  br label %424

146:                                              ; preds = %136
  %147 = load i64, ptr %7, align 8
  %148 = add i64 24, %147
  %149 = add i64 %148, 1
  %150 = add i64 %149, 8
  %151 = sub i64 %150, 1
  %152 = and i64 %151, -8
  %153 = icmp ule i64 %152, 96
  br i1 %153, label %154, label %156

154:                                              ; preds = %146
  %155 = call noalias ptr @_emalloc_96() #13
  br label %422

156:                                              ; preds = %146
  %157 = load i64, ptr %7, align 8
  %158 = add i64 24, %157
  %159 = add i64 %158, 1
  %160 = add i64 %159, 8
  %161 = sub i64 %160, 1
  %162 = and i64 %161, -8
  %163 = icmp ule i64 %162, 112
  br i1 %163, label %164, label %166

164:                                              ; preds = %156
  %165 = call noalias ptr @_emalloc_112() #13
  br label %420

166:                                              ; preds = %156
  %167 = load i64, ptr %7, align 8
  %168 = add i64 24, %167
  %169 = add i64 %168, 1
  %170 = add i64 %169, 8
  %171 = sub i64 %170, 1
  %172 = and i64 %171, -8
  %173 = icmp ule i64 %172, 128
  br i1 %173, label %174, label %176

174:                                              ; preds = %166
  %175 = call noalias ptr @_emalloc_128() #13
  br label %418

176:                                              ; preds = %166
  %177 = load i64, ptr %7, align 8
  %178 = add i64 24, %177
  %179 = add i64 %178, 1
  %180 = add i64 %179, 8
  %181 = sub i64 %180, 1
  %182 = and i64 %181, -8
  %183 = icmp ule i64 %182, 160
  br i1 %183, label %184, label %186

184:                                              ; preds = %176
  %185 = call noalias ptr @_emalloc_160() #13
  br label %416

186:                                              ; preds = %176
  %187 = load i64, ptr %7, align 8
  %188 = add i64 24, %187
  %189 = add i64 %188, 1
  %190 = add i64 %189, 8
  %191 = sub i64 %190, 1
  %192 = and i64 %191, -8
  %193 = icmp ule i64 %192, 192
  br i1 %193, label %194, label %196

194:                                              ; preds = %186
  %195 = call noalias ptr @_emalloc_192() #13
  br label %414

196:                                              ; preds = %186
  %197 = load i64, ptr %7, align 8
  %198 = add i64 24, %197
  %199 = add i64 %198, 1
  %200 = add i64 %199, 8
  %201 = sub i64 %200, 1
  %202 = and i64 %201, -8
  %203 = icmp ule i64 %202, 224
  br i1 %203, label %204, label %206

204:                                              ; preds = %196
  %205 = call noalias ptr @_emalloc_224() #13
  br label %412

206:                                              ; preds = %196
  %207 = load i64, ptr %7, align 8
  %208 = add i64 24, %207
  %209 = add i64 %208, 1
  %210 = add i64 %209, 8
  %211 = sub i64 %210, 1
  %212 = and i64 %211, -8
  %213 = icmp ule i64 %212, 256
  br i1 %213, label %214, label %216

214:                                              ; preds = %206
  %215 = call noalias ptr @_emalloc_256() #13
  br label %410

216:                                              ; preds = %206
  %217 = load i64, ptr %7, align 8
  %218 = add i64 24, %217
  %219 = add i64 %218, 1
  %220 = add i64 %219, 8
  %221 = sub i64 %220, 1
  %222 = and i64 %221, -8
  %223 = icmp ule i64 %222, 320
  br i1 %223, label %224, label %226

224:                                              ; preds = %216
  %225 = call noalias ptr @_emalloc_320() #13
  br label %408

226:                                              ; preds = %216
  %227 = load i64, ptr %7, align 8
  %228 = add i64 24, %227
  %229 = add i64 %228, 1
  %230 = add i64 %229, 8
  %231 = sub i64 %230, 1
  %232 = and i64 %231, -8
  %233 = icmp ule i64 %232, 384
  br i1 %233, label %234, label %236

234:                                              ; preds = %226
  %235 = call noalias ptr @_emalloc_384() #13
  br label %406

236:                                              ; preds = %226
  %237 = load i64, ptr %7, align 8
  %238 = add i64 24, %237
  %239 = add i64 %238, 1
  %240 = add i64 %239, 8
  %241 = sub i64 %240, 1
  %242 = and i64 %241, -8
  %243 = icmp ule i64 %242, 448
  br i1 %243, label %244, label %246

244:                                              ; preds = %236
  %245 = call noalias ptr @_emalloc_448() #13
  br label %404

246:                                              ; preds = %236
  %247 = load i64, ptr %7, align 8
  %248 = add i64 24, %247
  %249 = add i64 %248, 1
  %250 = add i64 %249, 8
  %251 = sub i64 %250, 1
  %252 = and i64 %251, -8
  %253 = icmp ule i64 %252, 512
  br i1 %253, label %254, label %256

254:                                              ; preds = %246
  %255 = call noalias ptr @_emalloc_512() #13
  br label %402

256:                                              ; preds = %246
  %257 = load i64, ptr %7, align 8
  %258 = add i64 24, %257
  %259 = add i64 %258, 1
  %260 = add i64 %259, 8
  %261 = sub i64 %260, 1
  %262 = and i64 %261, -8
  %263 = icmp ule i64 %262, 640
  br i1 %263, label %264, label %266

264:                                              ; preds = %256
  %265 = call noalias ptr @_emalloc_640() #13
  br label %400

266:                                              ; preds = %256
  %267 = load i64, ptr %7, align 8
  %268 = add i64 24, %267
  %269 = add i64 %268, 1
  %270 = add i64 %269, 8
  %271 = sub i64 %270, 1
  %272 = and i64 %271, -8
  %273 = icmp ule i64 %272, 768
  br i1 %273, label %274, label %276

274:                                              ; preds = %266
  %275 = call noalias ptr @_emalloc_768() #13
  br label %398

276:                                              ; preds = %266
  %277 = load i64, ptr %7, align 8
  %278 = add i64 24, %277
  %279 = add i64 %278, 1
  %280 = add i64 %279, 8
  %281 = sub i64 %280, 1
  %282 = and i64 %281, -8
  %283 = icmp ule i64 %282, 896
  br i1 %283, label %284, label %286

284:                                              ; preds = %276
  %285 = call noalias ptr @_emalloc_896() #13
  br label %396

286:                                              ; preds = %276
  %287 = load i64, ptr %7, align 8
  %288 = add i64 24, %287
  %289 = add i64 %288, 1
  %290 = add i64 %289, 8
  %291 = sub i64 %290, 1
  %292 = and i64 %291, -8
  %293 = icmp ule i64 %292, 1024
  br i1 %293, label %294, label %296

294:                                              ; preds = %286
  %295 = call noalias ptr @_emalloc_1024() #13
  br label %394

296:                                              ; preds = %286
  %297 = load i64, ptr %7, align 8
  %298 = add i64 24, %297
  %299 = add i64 %298, 1
  %300 = add i64 %299, 8
  %301 = sub i64 %300, 1
  %302 = and i64 %301, -8
  %303 = icmp ule i64 %302, 1280
  br i1 %303, label %304, label %306

304:                                              ; preds = %296
  %305 = call noalias ptr @_emalloc_1280() #13
  br label %392

306:                                              ; preds = %296
  %307 = load i64, ptr %7, align 8
  %308 = add i64 24, %307
  %309 = add i64 %308, 1
  %310 = add i64 %309, 8
  %311 = sub i64 %310, 1
  %312 = and i64 %311, -8
  %313 = icmp ule i64 %312, 1536
  br i1 %313, label %314, label %316

314:                                              ; preds = %306
  %315 = call noalias ptr @_emalloc_1536() #13
  br label %390

316:                                              ; preds = %306
  %317 = load i64, ptr %7, align 8
  %318 = add i64 24, %317
  %319 = add i64 %318, 1
  %320 = add i64 %319, 8
  %321 = sub i64 %320, 1
  %322 = and i64 %321, -8
  %323 = icmp ule i64 %322, 1792
  br i1 %323, label %324, label %326

324:                                              ; preds = %316
  %325 = call noalias ptr @_emalloc_1792() #13
  br label %388

326:                                              ; preds = %316
  %327 = load i64, ptr %7, align 8
  %328 = add i64 24, %327
  %329 = add i64 %328, 1
  %330 = add i64 %329, 8
  %331 = sub i64 %330, 1
  %332 = and i64 %331, -8
  %333 = icmp ule i64 %332, 2048
  br i1 %333, label %334, label %336

334:                                              ; preds = %326
  %335 = call noalias ptr @_emalloc_2048() #13
  br label %386

336:                                              ; preds = %326
  %337 = load i64, ptr %7, align 8
  %338 = add i64 24, %337
  %339 = add i64 %338, 1
  %340 = add i64 %339, 8
  %341 = sub i64 %340, 1
  %342 = and i64 %341, -8
  %343 = icmp ule i64 %342, 2560
  br i1 %343, label %344, label %346

344:                                              ; preds = %336
  %345 = call noalias ptr @_emalloc_2560() #13
  br label %384

346:                                              ; preds = %336
  %347 = load i64, ptr %7, align 8
  %348 = add i64 24, %347
  %349 = add i64 %348, 1
  %350 = add i64 %349, 8
  %351 = sub i64 %350, 1
  %352 = and i64 %351, -8
  %353 = icmp ule i64 %352, 3072
  br i1 %353, label %354, label %356

354:                                              ; preds = %346
  %355 = call noalias ptr @_emalloc_3072() #13
  br label %382

356:                                              ; preds = %346
  %357 = load i64, ptr %7, align 8
  %358 = add i64 24, %357
  %359 = add i64 %358, 1
  %360 = add i64 %359, 8
  %361 = sub i64 %360, 1
  %362 = and i64 %361, -8
  %363 = icmp ule i64 %362, 2093056
  br i1 %363, label %364, label %372

364:                                              ; preds = %356
  %365 = load i64, ptr %7, align 8
  %366 = add i64 24, %365
  %367 = add i64 %366, 1
  %368 = add i64 %367, 8
  %369 = sub i64 %368, 1
  %370 = and i64 %369, -8
  %371 = call noalias ptr @_emalloc_large(i64 noundef %370) #12
  br label %380

372:                                              ; preds = %356
  %373 = load i64, ptr %7, align 8
  %374 = add i64 24, %373
  %375 = add i64 %374, 1
  %376 = add i64 %375, 8
  %377 = sub i64 %376, 1
  %378 = and i64 %377, -8
  %379 = call noalias ptr @_emalloc_huge(i64 noundef %378) #12
  br label %380

380:                                              ; preds = %372, %364
  %381 = phi ptr [ %371, %364 ], [ %379, %372 ]
  br label %382

382:                                              ; preds = %380, %354
  %383 = phi ptr [ %355, %354 ], [ %381, %380 ]
  br label %384

384:                                              ; preds = %382, %344
  %385 = phi ptr [ %345, %344 ], [ %383, %382 ]
  br label %386

386:                                              ; preds = %384, %334
  %387 = phi ptr [ %335, %334 ], [ %385, %384 ]
  br label %388

388:                                              ; preds = %386, %324
  %389 = phi ptr [ %325, %324 ], [ %387, %386 ]
  br label %390

390:                                              ; preds = %388, %314
  %391 = phi ptr [ %315, %314 ], [ %389, %388 ]
  br label %392

392:                                              ; preds = %390, %304
  %393 = phi ptr [ %305, %304 ], [ %391, %390 ]
  br label %394

394:                                              ; preds = %392, %294
  %395 = phi ptr [ %295, %294 ], [ %393, %392 ]
  br label %396

396:                                              ; preds = %394, %284
  %397 = phi ptr [ %285, %284 ], [ %395, %394 ]
  br label %398

398:                                              ; preds = %396, %274
  %399 = phi ptr [ %275, %274 ], [ %397, %396 ]
  br label %400

400:                                              ; preds = %398, %264
  %401 = phi ptr [ %265, %264 ], [ %399, %398 ]
  br label %402

402:                                              ; preds = %400, %254
  %403 = phi ptr [ %255, %254 ], [ %401, %400 ]
  br label %404

404:                                              ; preds = %402, %244
  %405 = phi ptr [ %245, %244 ], [ %403, %402 ]
  br label %406

406:                                              ; preds = %404, %234
  %407 = phi ptr [ %235, %234 ], [ %405, %404 ]
  br label %408

408:                                              ; preds = %406, %224
  %409 = phi ptr [ %225, %224 ], [ %407, %406 ]
  br label %410

410:                                              ; preds = %408, %214
  %411 = phi ptr [ %215, %214 ], [ %409, %408 ]
  br label %412

412:                                              ; preds = %410, %204
  %413 = phi ptr [ %205, %204 ], [ %411, %410 ]
  br label %414

414:                                              ; preds = %412, %194
  %415 = phi ptr [ %195, %194 ], [ %413, %412 ]
  br label %416

416:                                              ; preds = %414, %184
  %417 = phi ptr [ %185, %184 ], [ %415, %414 ]
  br label %418

418:                                              ; preds = %416, %174
  %419 = phi ptr [ %175, %174 ], [ %417, %416 ]
  br label %420

420:                                              ; preds = %418, %164
  %421 = phi ptr [ %165, %164 ], [ %419, %418 ]
  br label %422

422:                                              ; preds = %420, %154
  %423 = phi ptr [ %155, %154 ], [ %421, %420 ]
  br label %424

424:                                              ; preds = %422, %144
  %425 = phi ptr [ %145, %144 ], [ %423, %422 ]
  br label %426

426:                                              ; preds = %424, %134
  %427 = phi ptr [ %135, %134 ], [ %425, %424 ]
  br label %428

428:                                              ; preds = %426, %124
  %429 = phi ptr [ %125, %124 ], [ %427, %426 ]
  br label %430

430:                                              ; preds = %428, %114
  %431 = phi ptr [ %115, %114 ], [ %429, %428 ]
  br label %432

432:                                              ; preds = %430, %104
  %433 = phi ptr [ %105, %104 ], [ %431, %430 ]
  br label %434

434:                                              ; preds = %432, %94
  %435 = phi ptr [ %95, %94 ], [ %433, %432 ]
  br label %436

436:                                              ; preds = %434, %84
  %437 = phi ptr [ %85, %84 ], [ %435, %434 ]
  br label %438

438:                                              ; preds = %436, %74
  %439 = phi ptr [ %75, %74 ], [ %437, %436 ]
  br label %440

440:                                              ; preds = %438, %64
  %441 = phi ptr [ %65, %64 ], [ %439, %438 ]
  br label %450

442:                                              ; preds = %48
  %443 = load i64, ptr %7, align 8
  %444 = add i64 24, %443
  %445 = add i64 %444, 1
  %446 = add i64 %445, 8
  %447 = sub i64 %446, 1
  %448 = and i64 %447, -8
  %449 = call noalias ptr @_emalloc(i64 noundef %448) #12
  br label %450

450:                                              ; preds = %442, %440
  %451 = phi ptr [ %441, %440 ], [ %449, %442 ]
  br label %452

452:                                              ; preds = %450, %40
  %453 = phi ptr [ %47, %40 ], [ %451, %450 ]
  store ptr %453, ptr %9, align 8
  %454 = load ptr, ptr %9, align 8
  store ptr %454, ptr %5, align 8
  store i32 1, ptr %6, align 4
  %455 = load i32, ptr %6, align 4
  %456 = load ptr, ptr %5, align 8
  store i32 %455, ptr %456, align 4
  %457 = load i8, ptr %8, align 1
  %458 = trunc i8 %457 to i1
  %459 = select i1 %458, i32 128, i32 0
  %460 = or i32 22, %459
  %461 = load ptr, ptr %9, align 8
  %462 = getelementptr inbounds %struct._zend_refcounted_h, ptr %461, i32 0, i32 1
  store i32 %460, ptr %462, align 4
  %463 = load ptr, ptr %9, align 8
  %464 = getelementptr inbounds %struct._zend_string, ptr %463, i32 0, i32 1
  store i64 0, ptr %464, align 8
  %465 = load i64, ptr %7, align 8
  %466 = load ptr, ptr %9, align 8
  %467 = getelementptr inbounds %struct._zend_string, ptr %466, i32 0, i32 2
  store i64 %465, ptr %467, align 8
  %468 = load ptr, ptr %9, align 8
  store ptr %468, ptr %13, align 8
  %469 = load ptr, ptr %13, align 8
  %470 = getelementptr inbounds %struct._zend_string, ptr %469, i32 0, i32 3
  %471 = load ptr, ptr %10, align 8
  %472 = load i64, ptr %11, align 8
  call void @llvm.memcpy.p0.p0.i64(ptr align 8 %470, ptr align 1 %471, i64 %472, i1 false)
  %473 = load ptr, ptr %13, align 8
  %474 = getelementptr inbounds %struct._zend_string, ptr %473, i32 0, i32 3
  %475 = load i64, ptr %11, align 8
  %476 = getelementptr inbounds [1 x i8], ptr %474, i64 0, i64 %475
  store i8 0, ptr %476, align 1
  %477 = load ptr, ptr %13, align 8
  store ptr %477, ptr %15, align 8
  br label %489

478:                                              ; preds = %26
  %479 = load i64, ptr %17, align 8
  %480 = icmp eq i64 %479, 0
  br i1 %480, label %481, label %483

481:                                              ; preds = %478
  %482 = load ptr, ptr @zend_empty_string, align 8
  store ptr %482, ptr %15, align 8
  br label %489

483:                                              ; preds = %478
  %484 = load ptr, ptr %16, align 8
  %485 = load i8, ptr %484, align 1
  %486 = zext i8 %485 to i64
  %487 = getelementptr inbounds [256 x ptr], ptr @zend_one_char_string, i64 0, i64 %486
  %488 = load ptr, ptr %487, align 8
  store ptr %488, ptr %15, align 8
  br label %489

489:                                              ; preds = %483, %481, %452
  %490 = load ptr, ptr %15, align 8
  store ptr %490, ptr %24, align 8
  %491 = load ptr, ptr %24, align 8
  %492 = load ptr, ptr %23, align 8
  %493 = getelementptr inbounds %struct._zval_struct, ptr %492, i32 0, i32 0
  store ptr %491, ptr %493, align 8
  %494 = load ptr, ptr %24, align 8
  %495 = getelementptr inbounds %struct._zend_string, ptr %494, i32 0, i32 0
  %496 = getelementptr inbounds %struct._zend_refcounted_h, ptr %495, i32 0, i32 1
  %497 = load i32, ptr %496, align 4
  store i32 %497, ptr %14, align 4
  %498 = load i32, ptr %14, align 4
  %499 = and i32 %498, 1008
  %500 = and i32 %499, 64
  %501 = icmp ne i32 %500, 0
  %502 = select i1 %501, i32 6, i32 262
  %503 = load ptr, ptr %23, align 8
  %504 = getelementptr inbounds %struct._zval_struct, ptr %503, i32 0, i32 1
  store i32 %502, ptr %504, align 8
  br label %505

505:                                              ; preds = %489
  br label %506

506:                                              ; preds = %505
  %507 = load ptr, ptr %18, align 8
  %508 = load ptr, ptr %21, align 8
  call void @php_register_variable_ex(ptr noundef %507, ptr noundef %22, ptr noundef %508)
  ret void
}

; Function Attrs: nounwind uwtable
define void @php_register_variable(ptr noundef %0, ptr noundef %1, ptr noundef %2) #0 {
  %4 = alloca ptr, align 8
  %5 = alloca ptr, align 8
  %6 = alloca ptr, align 8
  store ptr %0, ptr %4, align 8
  store ptr %1, ptr %5, align 8
  store ptr %2, ptr %6, align 8
  %7 = load ptr, ptr %4, align 8
  %8 = load ptr, ptr %5, align 8
  %9 = load ptr, ptr %5, align 8
  %10 = call i64 @strlen(ptr noundef %9) #11
  %11 = load ptr, ptr %6, align 8
  call void @php_register_variable_safe(ptr noundef %7, ptr noundef %8, i64 noundef %10, ptr noundef %11)
  ret void
}