; Function Attrs: nounwind uwtable
define void @php_register_variable(ptr nocapture noundef readonly %0, ptr nocapture noundef readonly %1, ptr noundef %2) local_unnamed_addr #0 {
  %4 = alloca %struct._zval_struct, align 8
  %5 = tail call i64 @strlen(ptr noundef nonnull dereferenceable(1) %1) #15
  call void @llvm.lifetime.start.p0(i64 16, ptr nonnull %4)
  %6 = icmp ugt i64 %5, 1
  br i1 %6, label %7, label %16

7:                                                ; preds = %3
  %8 = and i64 %5, -8
  %9 = add i64 %8, 32
  %10 = tail call noalias ptr @_emalloc(i64 noundef %9) #16
  store i32 1, ptr %10, align 4
  %11 = getelementptr inbounds i8, ptr %10, i64 4
  store i32 22, ptr %11, align 4
  %12 = getelementptr inbounds i8, ptr %10, i64 8
  store i64 0, ptr %12, align 8
  %13 = getelementptr inbounds i8, ptr %10, i64 16
  store i64 %5, ptr %13, align 8
  %14 = getelementptr inbounds i8, ptr %10, i64 24
  tail call void @llvm.memcpy.p0.p0.i64(ptr nonnull align 8 %14, ptr align 1 %1, i64 %5, i1 false)
  %15 = getelementptr inbounds [1 x i8], ptr %14, i64 0, i64 %5
  store i8 0, ptr %15, align 1
  br label %php_register_variable_safe.exit

16:                                               ; preds = %3
  %17 = icmp eq i64 %5, 0
  br i1 %17, label %18, label %20

18:                                               ; preds = %16
  %19 = load ptr, ptr @zend_empty_string, align 8
  br label %php_register_variable_safe.exit

20:                                               ; preds = %16
  %21 = load i8, ptr %1, align 1
  %22 = zext i8 %21 to i64
  %23 = getelementptr inbounds [256 x ptr], ptr @zend_one_char_string, i64 0, i64 %22
  %24 = load ptr, ptr %23, align 8
  br label %php_register_variable_safe.exit

php_register_variable_safe.exit:                  ; preds = %7, %18, %20
  %.0.i = phi ptr [ %10, %7 ], [ %19, %18 ], [ %24, %20 ]
  store ptr %.0.i, ptr %4, align 8
  %25 = getelementptr inbounds i8, ptr %.0.i, i64 4
  %26 = load i32, ptr %25, align 4
  %27 = and i32 %26, 64
  %.not.i = icmp eq i32 %27, 0
  %28 = select i1 %.not.i, i32 262, i32 6
  %29 = getelementptr inbounds i8, ptr %4, i64 8
  store i32 %28, ptr %29, align 8
  call void @php_register_variable_ex(ptr noundef %0, ptr noundef nonnull %4, ptr noundef %2)
  call void @llvm.lifetime.end.p0(i64 16, ptr nonnull %4)
  ret void
}